(lp0
(iFeature
N_Gram_Feature_Template
p1
(dp2
S'weight_vector'
p3
(dp4
(S'2-gram'
p5
(S'CONJ'
p6
g6
tp7
tp8
I-1
s(S'2-gram'
p9
(S'.'
p10
S'ADJ'
p11
tp12
tp13
I-4
s(S'2-gram'
p14
(S'X'
p15
S'PRT'
p16
tp17
tp18
I-1
s(S'2-gram'
p19
(S'VERB'
p20
S'PRON'
p21
tp22
tp23
I2
s(S'2-gram'
p24
(g6
g15
tp25
tp26
I-2
s(S'2-gram'
p27
(g21
S'NOUN'
p28
tp29
tp30
I3
s(S'2-gram'
p31
(S'DET'
p32
S'NOUN'
p33
tp34
tp35
I5
s(S'2-gram'
p36
(S'ADV'
p37
g15
tp38
tp39
I-3
s(S'2-gram'
p40
(g10
g10
tp41
tp42
I-1
s(S'2-gram'
p43
(S'NOUN'
p44
S'VERB'
p45
tp46
tp47
I1
s(S'2-gram'
p48
(g15
g6
tp49
tp50
I-2
s(S'2-gram'
p51
(g6
S'ADP'
p52
tp53
tp54
I-1
s(S'2-gram'
p55
(S'VERB'
p56
S'ADJ'
p57
tp58
tp59
I3
s(S'2-gram'
p60
(S'*'
p61
g10
tp62
tp63
I-1
s(S'2-gram'
p64
(g61
S'PRT'
p65
tp66
tp67
I-2
s(S'2-gram'
p68
(S'VERB'
p69
S'ADV'
p70
tp71
tp72
I2
s(S'2-gram'
p73
(S'PRON'
p74
S'PRON'
p75
tp76
tp77
I-2
s(S'2-gram'
p78
(S'NUM'
p79
S'PRON'
p80
tp81
tp82
I-1
s(S'2-gram'
p83
(g10
S'DET'
p84
tp85
tp86
I-1
s(S'2-gram'
p87
(S'NOUN'
p88
g10
tp89
tp90
I1
s(S'2-gram'
p91
(g10
S'PRON'
p92
tp93
tp94
I-1
s(S'2-gram'
p95
(S'DET'
p96
S'PRON'
p97
tp98
tp99
I-1
s(S'2-gram'
p100
(S'VERB'
p101
g10
tp102
tp103
I0
s(S'2-gram'
p104
(S'NOUN'
p105
g80
tp106
tp107
I-2
s(S'2-gram'
p108
(S'ADP'
p109
S'PRON'
p110
tp111
tp112
I0
s(S'2-gram'
p113
(g105
g15
tp114
tp115
I-1
s(S'2-gram'
p116
(g37
g105
tp117
tp118
I1
s(S'2-gram'
p119
(g10
S'ADV'
p120
tp121
tp122
I-2
s(S'2-gram'
p123
(S'CONJ'
p124
S'DET'
p125
tp126
tp127
I0
s(S'2-gram'
p128
(S'PRT'
p129
g37
tp130
tp131
I0
s(S'2-gram'
p132
(S'VERB'
p133
S'DET'
p134
tp135
tp136
I4
s(S'2-gram'
p137
(S'PRT'
p138
S'NOUN'
p139
tp140
tp141
I5
s(S'2-gram'
p142
(g52
g10
tp143
tp144
I0
s(S'2-gram'
p145
(g61
g37
tp146
tp147
I2
s(S'2-gram'
p148
(S'VERB'
p149
S'NUM'
p150
tp151
tp152
I3
s(S'2-gram'
p153
(S'PRT'
p154
S'DET'
p155
tp156
tp157
I-2
s(S'2-gram'
p158
(S'NUM'
p159
S'PRT'
p160
tp161
tp162
I1
s(S'2-gram'
p163
(g6
g10
tp164
tp165
I-3
s(S'2-gram'
p166
(g80
g15
tp167
tp168
I-2
s(S'2-gram'
p169
(S'ADV'
p170
S'VERB'
p171
tp172
tp173
I2
s(S'2-gram'
p174
(g61
g32
tp175
tp176
I0
s(S'2-gram'
p177
(S'ADV'
p178
S'ADP'
p179
tp180
tp181
I-1
s(S'2-gram'
p182
(g52
g6
tp183
tp184
I-1
s(S'2-gram'
p185
(S'VERB'
p186
g186
tp187
tp188
I2
s(S'2-gram'
p189
(g52
g129
tp190
tp191
I0
s(S'2-gram'
p192
(S'NUM'
p193
S'ADJ'
p194
tp195
tp196
I0
s(S'2-gram'
p197
(g10
S'NUM'
p198
tp199
tp200
I-2
s(S'2-gram'
p201
(S'DET'
p202
S'NUM'
p203
tp204
tp205
I0
s(S'2-gram'
p206
(g10
S'NOUN'
p207
tp208
tp209
I0
s(S'2-gram'
p210
(g11
g11
tp211
tp212
I3
s(S'2-gram'
p213
(S'PRT'
p214
S'ADJ'
p215
tp216
tp217
I1
s(S'2-gram'
p218
(g120
S'DET'
p219
tp220
tp221
I0
s(S'2-gram'
p222
(S'PRON'
p223
S'VERB'
p224
tp225
tp226
I1
s(S'2-gram'
p227
(S'CONJ'
p228
S'ADJ'
p229
tp230
tp231
I-1
s(S'2-gram'
p232
(g84
g10
tp233
tp234
I0
s(S'2-gram'
p235
(g45
g88
tp236
tp237
I5
s(S'2-gram'
p238
(g61
g79
tp239
tp240
I-2
s(S'2-gram'
p241
(g10
S'ADP'
p242
tp243
tp244
I-3
s(S'2-gram'
p245
(g52
g52
tp246
tp247
I1
s(S'2-gram'
p248
(g61
g52
tp249
tp250
I0
s(S'2-gram'
p251
(g15
g80
tp252
tp253
I-1
s(S'2-gram'
p254
(S'ADV'
p255
S'PRON'
p256
tp257
tp258
I-2
s(S'2-gram'
p259
(S'NOUN'
p260
S'ADP'
p261
tp262
tp263
I1
s(S'2-gram'
p264
(S'CONJ'
p265
S'PRT'
p266
tp267
tp268
I-2
s(S'2-gram'
p269
(g129
g80
tp270
tp271
I-1
s(S'2-gram'
p272
(S'VERB'
p273
S'PRT'
p274
tp275
tp276
I2
s(S'2-gram'
p277
(g52
g186
tp278
tp279
I0
s(S'2-gram'
p280
(g186
g6
tp281
tp282
I1
s(S'2-gram'
p283
(S'PRON'
p284
S'DET'
p285
tp286
tp287
I-1
s(S'2-gram'
p288
(g84
g6
tp289
tp290
I-2
s(S'2-gram'
p291
(g11
g186
tp292
tp293
I-1
s(S'2-gram'
p294
(g61
S'CONJ'
p295
tp296
tp297
I0
s(S'2-gram'
p298
(g84
g37
tp299
tp300
I1
s(S'2-gram'
p301
(S'NUM'
p302
g10
tp303
tp304
I1
s(S'2-gram'
p305
(S'ADV'
p306
g10
tp307
tp308
I-1
s(S'2-gram'
p309
(g11
g84
tp310
tp311
I-1
s(S'2-gram'
p312
(S'ADJ'
p313
S'NOUN'
p314
tp315
tp316
I6
s(S'2-gram'
p317
(g186
g15
tp318
tp319
I0
s(S'2-gram'
p320
(S'ADP'
p321
S'NUM'
p322
tp323
tp324
I1
s(S'2-gram'
p325
(g10
g154
tp326
tp327
I-5
s(S'2-gram'
p328
(g6
g37
tp329
tp330
I0
s(S'2-gram'
p331
(g10
S'CONJ'
p332
tp333
tp334
I-3
s(S'2-gram'
p335
(S'PRON'
p336
S'ADP'
p337
tp338
tp339
I0
s(S'2-gram'
p340
(S'ADV'
p341
S'PRT'
p342
tp343
tp344
I1
s(S'2-gram'
p345
(S'NUM'
p346
S'NUM'
p347
tp348
tp349
I3
s(S'2-gram'
p350
(S'ADJ'
p351
g228
tp352
tp353
I1
s(S'2-gram'
p354
(S'NOUN'
p355
g44
tp356
tp357
I4
s(S'2-gram'
p358
(g11
g80
tp359
tp360
I-1
s(S'2-gram'
p361
(g15
g11
tp362
tp363
I-2
s(S'2-gram'
p364
(g15
g15
tp365
tp366
I2
s(S'2-gram'
p367
(g80
g129
tp368
tp369
I0
s(S'2-gram'
p370
(g15
g37
tp371
tp372
I-2
s(S'2-gram'
p373
(g11
g15
tp374
tp375
I-2
s(S'2-gram'
p376
(g37
g6
tp377
tp378
I0
s(S'2-gram'
p379
(g61
g355
tp380
tp381
I2
s(S'2-gram'
p382
(g52
g37
tp383
tp384
I0
s(S'2-gram'
p385
(S'CONJ'
p386
S'PRON'
p387
tp388
tp389
I0
s(S'2-gram'
p390
(g84
g84
tp391
tp392
I-1
s(S'2-gram'
p393
(g129
g15
tp394
tp395
I-4
s(S'2-gram'
p396
(S'PRT'
p397
g10
tp398
tp399
I0
s(S'2-gram'
p400
(g79
g84
tp401
tp402
I-3
s(S'2-gram'
p403
(g84
g15
tp404
tp405
I0
s(S'2-gram'
p406
(g79
g52
tp407
tp408
I0
s(S'2-gram'
p409
(g61
g15
tp410
tp411
I0
s(S'2-gram'
p412
(g261
S'DET'
p413
tp414
tp415
I2
s(S'2-gram'
p416
(g84
g52
tp417
tp418
I0
s(S'2-gram'
p419
(g15
g10
tp420
tp421
I-1
s(S'2-gram'
p422
(g150
g260
tp423
tp424
I5
s(S'2-gram'
p425
(g15
g186
tp426
tp427
I0
s(S'2-gram'
p428
(S'NOUN'
p429
S'ADV'
p430
tp431
tp432
I0
s(S'2-gram'
p433
(g11
g52
tp434
tp435
I2
s(S'2-gram'
p436
(g15
g52
tp437
tp438
I-2
s(S'2-gram'
p439
(S'NOUN'
p440
S'CONJ'
p441
tp442
tp443
I-1
s(S'2-gram'
p444
(g80
g79
tp445
tp446
I-1
s(S'2-gram'
p447
(S'PRT'
p448
S'VERB'
p449
tp450
tp451
I0
s(S'2-gram'
p452
(S'PRON'
p453
S'CONJ'
p454
tp455
tp456
I-2
s(S'2-gram'
p457
(g171
S'ADP'
p458
tp459
tp460
I2
s(S'2-gram'
p461
(g15
g79
tp462
tp463
I-1
s(S'2-gram'
p464
(g441
S'NOUN'
p465
tp466
tp467
I3
s(S'2-gram'
p468
(S'ADP'
p469
g351
tp470
tp471
I3
s(S'2-gram'
p472
(S'ADJ'
p473
S'NUM'
p474
tp475
tp476
I1
s(S'2-gram'
p477
(S'ADJ'
p478
g10
tp479
tp480
I3
s(S'2-gram'
p481
(S'NOUN'
p482
g302
tp483
tp484
I-2
s(S'2-gram'
p485
(g70
g170
tp486
tp487
I-1
s(S'2-gram'
p488
(g79
g37
tp489
tp490
I1
s(S'2-gram'
p491
(g129
g52
tp492
tp493
I0
s(S'2-gram'
p494
(g80
g37
tp495
tp496
I0
s(S'2-gram'
p497
(g61
S'VERB'
p498
tp499
tp500
I-2
s(S'2-gram'
p501
(S'ADP'
p502
g15
tp503
tp504
I1
s(S'2-gram'
p505
(g61
g223
tp506
tp507
I2
s(S'2-gram'
p508
(g37
g79
tp509
tp510
I1
s(S'2-gram'
p511
(g10
g101
tp512
tp513
I-2
s(S'2-gram'
p514
(S'DET'
p515
S'VERB'
p516
tp517
tp518
I1
s(S'2-gram'
p519
(g129
g6
tp520
tp521
I0
s(S'2-gram'
p522
(g61
g11
tp523
tp524
I1
s(S'2-gram'
p525
(S'PRT'
p526
S'PRT'
p527
tp528
tp529
I-1
s(S'2-gram'
p530
(S'NUM'
p531
S'CONJ'
p532
tp533
tp534
I0
s(S'2-gram'
p535
(S'NOUN'
p536
S'DET'
p537
tp538
tp539
I-2
s(S'2-gram'
p540
(g295
S'VERB'
p541
tp542
tp543
I-1
s(S'2-gram'
p544
(g15
g84
tp545
tp546
I-2
s(S'2-gram'
p547
(S'PRT'
p548
S'NUM'
p549
tp550
tp551
I1
s(S'2-gram'
p552
(g10
g15
tp553
tp554
I-4
s(S'2-gram'
p555
(g6
g79
tp556
tp557
I-1
s(S'2-gram'
p558
(g15
g105
tp559
tp560
I0
s(S'2-gram'
p561
(g84
g11
tp562
tp563
I3
s(S'2-gram'
p564
(g79
g186
tp565
tp566
I1
s(S'2-gram'
p567
(g11
g129
tp568
tp569
I1
s(S'2-gram'
p570
(S'NOUN'
p571
g313
tp572
tp573
I-1
s(S'2-gram'
p574
(S'PRON'
p575
g10
tp576
tp577
I-2
s(S'2-gram'
p578
(g11
g37
tp579
tp580
I0
s(S'2-gram'
p581
(g28
g548
tp582
tp583
I0
s(S'2-gram'
p584
(g337
S'NOUN'
p585
tp586
tp587
I4
s(S'2-gram'
p588
(g84
g129
tp589
tp590
I-2
s(S'2-gram'
p591
(S'ADV'
p592
S'ADJ'
p593
tp594
tp595
I0
s(S'2-gram'
p596
(g110
S'ADJ'
p597
tp598
tp599
I0
ssS'n'
p600
I2
sba.